; Function Attrs: nounwind uwtable
define ptr @l_Lean_Syntax_getArgs(ptr noundef %0) local_unnamed_addr #0 {
  %2 = ptrtoint ptr %0 to i64
  %3 = and i64 %2, 1
  %.not.i = icmp eq i64 %3, 0
  br i1 %.not.i, label %7, label %4

4:                                                ; preds = %1
  %5 = lshr i64 %2, 1
  %6 = trunc i64 %5 to i32
  br label %lean_obj_tag.exit

7:                                                ; preds = %1
  %8 = getelementptr i8, ptr %0, i64 4
  %.val.i = load i32, ptr %8, align 4
  %9 = lshr i32 %.val.i, 24
  br label %lean_obj_tag.exit

lean_obj_tag.exit:                                ; preds = %4, %7
  %.0.i = phi i32 [ %6, %4 ], [ %9, %7 ]
  %10 = icmp eq i32 %.0.i, 1
  br i1 %10, label %11, label %22

11:                                               ; preds = %lean_obj_tag.exit
  %12 = getelementptr inbounds nuw i8, ptr %0, i64 24
  %13 = load ptr, ptr %12, align 8, !tbaa !10
  %14 = ptrtoint ptr %13 to i64
  %15 = and i64 %14, 1
  %.not = icmp eq i64 %15, 0
  br i1 %.not, label %16, label %lean_inc.exit

16:                                               ; preds = %11
  %.val.i6 = load i32, ptr %13, align 4, !tbaa !4
  %17 = icmp sgt i32 %.val.i6, 0
  br i1 %17, label %18, label %20, !prof !9

18:                                               ; preds = %16
  %19 = add nuw i32 %.val.i6, 1
  store i32 %19, ptr %13, align 4, !tbaa !4
  br label %lean_inc.exit

20:                                               ; preds = %16
  %.not.i7 = icmp eq i32 %.val.i6, 0
  br i1 %.not.i7, label %lean_inc.exit, label %21

21:                                               ; preds = %20
  tail call void @lean_inc_ref_cold(ptr noundef nonnull %13) #11
  br label %lean_inc.exit

22:                                               ; preds = %lean_obj_tag.exit
  %23 = load ptr, ptr @l_Array_empty___closed__1, align 8, !tbaa !10
  br label %lean_inc.exit

lean_inc.exit:                                    ; preds = %11, %18, %20, %21, %22
  %.0 = phi ptr [ %23, %22 ], [ %13, %21 ], [ %13, %20 ], [ %13, %18 ], [ %13, %11 ]
  ret ptr %.0
}